#include <math.h>
#include <stdio.h>
#include <stdlib.h>
#include <string.h>

int main()
{
	struct student
	{
		char imfor[100];
	};

	int n=1,m;
	struct student *p1,*p3[600];
	p1=p3[0]=(struct student *)malloc(sizeof(struct student));
	gets(p1->imfor);
	while (p1->imfor[0]!='e')
	{
		p1=(struct student * )malloc(sizeof(struct student));
		p3[n]=p1;
		n++;
		gets(p1->imfor);
	}
	for (m=n-2;m>=0;m--)
	{
		printf("%s\n",p3[m]->imfor);
	}
}