; ModuleID = '31/1241.c'
source_filename = "31/1241.c"
target datalayout = "e-m:e-p270:32:32-p271:32:32-p272:64:64-i64:64-f80:128-n8:16:32:64-S128"
target triple = "x86_64-pc-linux-gnu"

%struct.student = type { [100 x i8] }

@.str = private unnamed_addr constant [4 x i8] c"%s\0A\00", align 1

; Function Attrs: noinline nounwind uwtable
define dso_local i32 @main() #0 {
  %1 = alloca i32, align 4
  %2 = alloca i32, align 4
  %3 = alloca i32, align 4
  %4 = alloca %struct.student*, align 8
  %5 = alloca [600 x %struct.student*], align 16
  store i32 0, i32* %1, align 4
  store i32 1, i32* %2, align 4
  %6 = call noalias i8* @malloc(i64 100) #3
  %7 = bitcast i8* %6 to %struct.student*
  %8 = getelementptr inbounds [600 x %struct.student*], [600 x %struct.student*]* %5, i64 0, i64 0
  store %struct.student* %7, %struct.student** %8, align 16
  store %struct.student* %7, %struct.student** %4, align 8
  %9 = load %struct.student*, %struct.student** %4, align 8
  %10 = getelementptr inbounds %struct.student, %struct.student* %9, i32 0, i32 0
  %11 = getelementptr inbounds [100 x i8], [100 x i8]* %10, i64 0, i64 0
  %12 = call i32 (i8*, ...) bitcast (i32 (...)* @gets to i32 (i8*, ...)*)(i8* %11)
  br label %13

13:                                               ; preds = %20, %0
  %14 = load %struct.student*, %struct.student** %4, align 8
  %15 = getelementptr inbounds %struct.student, %struct.student* %14, i32 0, i32 0
  %16 = getelementptr inbounds [100 x i8], [100 x i8]* %15, i64 0, i64 0
  %17 = load i8, i8* %16, align 1
  %18 = sext i8 %17 to i32
  %19 = icmp ne i32 %18, 101
  br i1 %19, label %20, label %33

20:                                               ; preds = %13
  %21 = call noalias i8* @malloc(i64 100) #3
  %22 = bitcast i8* %21 to %struct.student*
  store %struct.student* %22, %struct.student** %4, align 8
  %23 = load %struct.student*, %struct.student** %4, align 8
  %24 = load i32, i32* %2, align 4
  %25 = sext i32 %24 to i64
  %26 = getelementptr inbounds [600 x %struct.student*], [600 x %struct.student*]* %5, i64 0, i64 %25
  store %struct.student* %23, %struct.student** %26, align 8
  %27 = load i32, i32* %2, align 4
  %28 = add nsw i32 %27, 1
  store i32 %28, i32* %2, align 4
  %29 = load %struct.student*, %struct.student** %4, align 8
  %30 = getelementptr inbounds %struct.student, %struct.student* %29, i32 0, i32 0
  %31 = getelementptr inbounds [100 x i8], [100 x i8]* %30, i64 0, i64 0
  %32 = call i32 (i8*, ...) bitcast (i32 (...)* @gets to i32 (i8*, ...)*)(i8* %31)
  br label %13

33:                                               ; preds = %13
  %34 = load i32, i32* %2, align 4
  %35 = sub nsw i32 %34, 2
  store i32 %35, i32* %3, align 4
  br label %36

36:                                               ; preds = %47, %33
  %37 = load i32, i32* %3, align 4
  %38 = icmp sge i32 %37, 0
  br i1 %38, label %39, label %50

39:                                               ; preds = %36
  %40 = load i32, i32* %3, align 4
  %41 = sext i32 %40 to i64
  %42 = getelementptr inbounds [600 x %struct.student*], [600 x %struct.student*]* %5, i64 0, i64 %41
  %43 = load %struct.student*, %struct.student** %42, align 8
  %44 = getelementptr inbounds %struct.student, %struct.student* %43, i32 0, i32 0
  %45 = getelementptr inbounds [100 x i8], [100 x i8]* %44, i64 0, i64 0
  %46 = call i32 (i8*, ...) @printf(i8* getelementptr inbounds ([4 x i8], [4 x i8]* @.str, i64 0, i64 0), i8* %45)
  br label %47

47:                                               ; preds = %39
  %48 = load i32, i32* %3, align 4
  %49 = add nsw i32 %48, -1
  store i32 %49, i32* %3, align 4
  br label %36

50:                                               ; preds = %36
  %51 = load i32, i32* %1, align 4
  ret i32 %51
}

; Function Attrs: nounwind
declare dso_local noalias i8* @malloc(i64) #1

declare dso_local i32 @gets(...) #2

declare dso_local i32 @printf(i8*, ...) #2


!llvm.module.flags = !{!0}
!llvm.ident = !{!1}

!0 = !{i32 1, !"wchar_size", i32 4}
!1 = !{!"clang version 10.0.0-4ubuntu1 "}
