; ModuleID = 'source-C-CXX/30/1241.c'
source_filename = "source-C-CXX/30/1241.c"
target datalayout = "e-m:e-p270:32:32-p271:32:32-p272:64:64-i64:64-f80:128-n8:16:32:64-S128"
target triple = "x86_64-pc-linux-gnu"

%struct.student = type { [100 x i8] }

; Function Attrs: nounwind sspstrong uwtable
define dso_local i32 @main() local_unnamed_addr #0 {
  %1 = alloca [600 x %struct.student*], align 16
  %2 = bitcast [600 x %struct.student*]* %1 to i8*
  call void @llvm.lifetime.start.p0i8(i64 4800, i8* nonnull %2) #5
  %3 = tail call noalias align 16 dereferenceable_or_null(100) i8* @malloc(i64 100) #5
  %4 = bitcast i8* %3 to %struct.student*
  %5 = bitcast [600 x %struct.student*]* %1 to i8**
  store i8* %3, i8** %5, align 16, !tbaa !5
  %6 = getelementptr inbounds %struct.student, %struct.student* %4, i64 0, i32 0, i64 0
  %7 = tail call i32 (i8*, ...) bitcast (i32 (...)* @gets to i32 (i8*, ...)*)(i8* %6) #5
  %8 = load i8, i8* %6, align 16, !tbaa !9
  %9 = icmp eq i8 %8, 101
  br i1 %9, label %35, label %10

10:                                               ; preds = %0, %10
  %11 = phi i64 [ %16, %10 ], [ 1, %0 ]
  %12 = tail call noalias align 16 dereferenceable_or_null(100) i8* @malloc(i64 100) #5
  %13 = bitcast i8* %12 to %struct.student*
  %14 = getelementptr inbounds [600 x %struct.student*], [600 x %struct.student*]* %1, i64 0, i64 %11
  %15 = bitcast %struct.student** %14 to i8**
  store i8* %12, i8** %15, align 8, !tbaa !5
  %16 = add nuw i64 %11, 1
  %17 = getelementptr inbounds %struct.student, %struct.student* %13, i64 0, i32 0, i64 0
  %18 = tail call i32 (i8*, ...) bitcast (i32 (...)* @gets to i32 (i8*, ...)*)(i8* %17) #5
  %19 = load i8, i8* %17, align 16, !tbaa !9
  %20 = icmp eq i8 %19, 101
  br i1 %20, label %21, label %10, !llvm.loop !10

21:                                               ; preds = %10
  %22 = trunc i64 %16 to i32
  %23 = icmp sgt i32 %22, 1
  br i1 %23, label %24, label %35

24:                                               ; preds = %21
  %25 = add i64 %11, 4294967295
  %26 = and i64 %25, 4294967295
  br label %27

27:                                               ; preds = %24, %27
  %28 = phi i64 [ %26, %24 ], [ %34, %27 ]
  %29 = getelementptr inbounds [600 x %struct.student*], [600 x %struct.student*]* %1, i64 0, i64 %28
  %30 = load %struct.student*, %struct.student** %29, align 8, !tbaa !5
  %31 = getelementptr inbounds %struct.student, %struct.student* %30, i64 0, i32 0, i64 0
  %32 = tail call i32 @puts(i8* nonnull dereferenceable(1) %31)
  %33 = icmp sgt i64 %28, 0
  %34 = add nsw i64 %28, -1
  br i1 %33, label %27, label %35, !llvm.loop !12

35:                                               ; preds = %27, %0, %21
  call void @llvm.lifetime.end.p0i8(i64 4800, i8* nonnull %2) #5
  ret i32 0
}

; Function Attrs: argmemonly mustprogress nofree nosync nounwind willreturn
declare void @llvm.lifetime.start.p0i8(i64 immarg, i8* nocapture) #1

; Function Attrs: inaccessiblememonly mustprogress nofree nounwind willreturn
declare noalias noundef align 16 i8* @malloc(i64 noundef) local_unnamed_addr #2

declare i32 @gets(...) local_unnamed_addr #3

; Function Attrs: argmemonly mustprogress nofree nosync nounwind willreturn
declare void @llvm.lifetime.end.p0i8(i64 immarg, i8* nocapture) #1

; Function Attrs: nofree nounwind
declare noundef i32 @puts(i8* nocapture noundef readonly) local_unnamed_addr #4


!llvm.module.flags = !{!0, !1, !2, !3}
!llvm.ident = !{!4}

!0 = !{i32 1, !"wchar_size", i32 4}
!1 = !{i32 7, !"PIC Level", i32 2}
!2 = !{i32 7, !"PIE Level", i32 2}
!3 = !{i32 7, !"uwtable", i32 1}
!4 = !{!"clang version 13.0.0"}
!5 = !{!6, !6, i64 0}
!6 = !{!"any pointer", !7, i64 0}
!7 = !{!"omnipotent char", !8, i64 0}
!8 = !{!"Simple C/C++ TBAA"}
!9 = !{!7, !7, i64 0}
!10 = distinct !{!10, !11}
!11 = !{!"llvm.loop.mustprogress"}
!12 = distinct !{!12, !11}
